target datalayout = "e-m:e-p270:32:32-p271:32:32-p272:64:64-i64:64-i128:128-f80:128-n8:16:32:64-S128"
target triple = "x86_64-pc-linux-gnu"

%class.ArchivedClassLoaderData = type { ptr, ptr }
%class.OopHandle = type { ptr }
%class.ClassLoaderData = type { %class.WeakHandle, %class.OopHandle, ptr, ptr, i8, i8, i8, i32, i32, %"class.ClassLoaderData::ChunkedHandleList", ptr, ptr, ptr, ptr, ptr, ptr, ptr, ptr, ptr, ptr, ptr, ptr, i64 }
%class.WeakHandle = type { ptr }
%"class.ClassLoaderData::ChunkedHandleList" = type { ptr }

; Function Attrs: mustprogress nounwind uwtable
define linkonce_odr hidden noundef ptr @_ZN15ClassLoaderData8packagesEv(ptr noundef nonnull align 8 dereferenceable(160) %0) #1 comdat align 2 {
  %2 = alloca ptr, align 8
  store ptr %0, ptr %2, align 8
  %3 = load ptr, ptr %2, align 8
  %4 = getelementptr inbounds %class.ClassLoaderData, ptr %3, i32 0, i32 11
  %5 = load volatile ptr, ptr %4, align 8
  ret ptr %5
}

; Function Attrs: mustprogress nounwind uwtable
define linkonce_odr hidden void @_ZN23ArchivedClassLoaderData12assert_validEP15ClassLoaderData(ptr noundef nonnull align 8 dereferenceable(16) %0, ptr noundef %1) #1 comdat align 2 {
  %3 = alloca ptr, align 8
  %4 = alloca ptr, align 8
  store ptr %0, ptr %3, align 8
  store ptr %1, ptr %4, align 8
  %5 = load ptr, ptr %4, align 8
  %6 = icmp ne ptr %5, null
  br i1 %6, label %7, label %8

7:                                                ; preds = %2
  br label %8

8:                                                ; preds = %7, %2
  ret void
}

; Function Attrs: mustprogress nounwind uwtable
define hidden void @_ZN23ArchivedClassLoaderData21init_archived_entriesEP15ClassLoaderData(ptr noundef nonnull align 8 dereferenceable(16) %0, ptr noundef %1) #1 align 2 {
  %3 = alloca ptr, align 8
  %4 = alloca ptr, align 8
  store ptr %0, ptr %3, align 8
  store ptr %1, ptr %4, align 8
  %5 = load ptr, ptr %3, align 8
  %6 = load ptr, ptr %4, align 8
  call void @_ZN23ArchivedClassLoaderData12assert_validEP15ClassLoaderData(ptr noundef nonnull align 8 dereferenceable(16) %5, ptr noundef %6)
  %7 = load ptr, ptr %4, align 8
  %8 = icmp ne ptr %7, null
  br i1 %8, label %9, label %18

9:                                                ; preds = %2
  %10 = load ptr, ptr %4, align 8
  %11 = call noundef ptr @_ZN15ClassLoaderData8packagesEv(ptr noundef nonnull align 8 dereferenceable(160) %10)
  %12 = getelementptr inbounds %class.ArchivedClassLoaderData, ptr %5, i32 0, i32 0
  %13 = load ptr, ptr %12, align 8
  call void @_ZN17PackageEntryTable21init_archived_entriesEP5ArrayIP12PackageEntryE(ptr noundef nonnull align 8 dereferenceable(880) %11, ptr noundef %13)
  %14 = load ptr, ptr %4, align 8
  %15 = call noundef ptr @_ZN15ClassLoaderData7modulesEv(ptr noundef nonnull align 8 dereferenceable(160) %14)
  %16 = getelementptr inbounds %class.ArchivedClassLoaderData, ptr %5, i32 0, i32 1
  %17 = load ptr, ptr %16, align 8
  call void @_ZN16ModuleEntryTable21init_archived_entriesEP5ArrayIP11ModuleEntryE(ptr noundef nonnull align 8 dereferenceable(880) %15, ptr noundef %17)
  br label %18

18:                                               ; preds = %9, %2
  ret void
}