; Function Attrs: mustprogress nounwind uwtable
define hidden void @_ZN23ArchivedClassLoaderData21init_archived_entriesEP15ClassLoaderData(ptr nocapture noundef nonnull readonly align 8 dereferenceable(16) %0, ptr noundef %1) local_unnamed_addr #0 align 2 {
  %.not = icmp eq ptr %1, null
  br i1 %.not, label %10, label %3

3:                                                ; preds = %2
  %4 = getelementptr inbounds i8, ptr %1, i64 64
  %5 = load volatile ptr, ptr %4, align 8
  %6 = load ptr, ptr %0, align 8
  tail call void @_ZN17PackageEntryTable21init_archived_entriesEP5ArrayIP12PackageEntryE(ptr noundef nonnull align 8 dereferenceable(880) %5, ptr noundef %6) #4
  %7 = tail call noundef ptr @_ZN15ClassLoaderData7modulesEv(ptr noundef nonnull align 8 dereferenceable(160) %1) #4
  %8 = getelementptr inbounds i8, ptr %0, i64 8
  %9 = load ptr, ptr %8, align 8
  tail call void @_ZN16ModuleEntryTable21init_archived_entriesEP5ArrayIP11ModuleEntryE(ptr noundef nonnull align 8 dereferenceable(880) %7, ptr noundef %9) #4
  br label %10

10:                                               ; preds = %3, %2
  ret void
}